target datalayout = "e-m:e-p270:32:32-p271:32:32-p272:64:64-i64:64-i128:128-f80:128-n8:16:32:64-S128"
target triple = "x86_64-pc-linux-gnu"

%struct.LookupDataStruct = type { i32, i32, i32 }
%struct.UConverterLoadArgs = type { i32, i32, i8, i8, i16, i32, ptr, ptr, ptr }
%struct.UConverter = type { ptr, ptr, ptr, ptr, ptr, ptr, ptr, i32, i8, i8, i8, i8, i8, [7 x i8], i32, i32, i32, i32, i8, i8, i8, i8, i8, i8, i8, i8, [8 x i8], [32 x i8], [2 x i16], [2 x i16], [32 x i16], i32, [19 x i16], [31 x i8], i8, i8, i8, i32 }
%struct.UConverterDataISCII = type { i16, i16, i16, i16, i16, i32, i32, i32, i8, i8, [16 x i8], i32 }

@.str = private unnamed_addr constant [15 x i8] c"ISCII,version=\00", align 1

; Function Attrs: mustprogress uwtable
define internal void @_ZL10_ISCIIOpenP10UConverterP18UConverterLoadArgsP10UErrorCode(ptr noundef %0, ptr noundef %1, ptr noundef %2) #0 {
  %4 = alloca ptr, align 8
  %5 = alloca ptr, align 8
  %6 = alloca ptr, align 8
  %7 = alloca i32, align 4
  %8 = alloca ptr, align 8
  store ptr %0, ptr %4, align 8, !tbaa !3
  store ptr %1, ptr %5, align 8, !tbaa !8
  store ptr %2, ptr %6, align 8, !tbaa !8
  %9 = load ptr, ptr %5, align 8, !tbaa !8
  %10 = getelementptr inbounds nuw %struct.UConverterLoadArgs, ptr %9, i32 0, i32 2
  %11 = load i8, ptr %10, align 8, !tbaa !9
  %12 = icmp ne i8 %11, 0
  br i1 %12, label %13, label %14

13:                                               ; preds = %3
  br label %110

14:                                               ; preds = %3
  %15 = call noalias ptr @uprv_malloc_77(i64 noundef 48) #9
  %16 = load ptr, ptr %4, align 8, !tbaa !3
  %17 = getelementptr inbounds nuw %struct.UConverter, ptr %16, i32 0, i32 2
  store ptr %15, ptr %17, align 8, !tbaa !14
  %18 = load ptr, ptr %4, align 8, !tbaa !3
  %19 = getelementptr inbounds nuw %struct.UConverter, ptr %18, i32 0, i32 2
  %20 = load ptr, ptr %19, align 8, !tbaa !14
  %21 = icmp ne ptr %20, null
  br i1 %21, label %22, label %108

22:                                               ; preds = %14
  call void @llvm.lifetime.start.p0(i64 4, ptr %7) #10
  store i32 0, ptr %7, align 4, !tbaa !18
  call void @llvm.lifetime.start.p0(i64 8, ptr %8) #10
  %23 = load ptr, ptr %4, align 8, !tbaa !3
  %24 = getelementptr inbounds nuw %struct.UConverter, ptr %23, i32 0, i32 2
  %25 = load ptr, ptr %24, align 8, !tbaa !14
  store ptr %25, ptr %8, align 8, !tbaa !8
  %26 = load ptr, ptr %8, align 8, !tbaa !8
  %27 = getelementptr inbounds nuw %struct.UConverterDataISCII, ptr %26, i32 0, i32 0
  store i16 -2, ptr %27, align 4, !tbaa !19
  %28 = load ptr, ptr %4, align 8, !tbaa !3
  %29 = getelementptr inbounds nuw %struct.UConverter, ptr %28, i32 0, i32 14
  store i32 65535, ptr %29, align 8, !tbaa !23
  %30 = load ptr, ptr %8, align 8, !tbaa !8
  %31 = getelementptr inbounds nuw %struct.UConverterDataISCII, ptr %30, i32 0, i32 1
  store i16 0, ptr %31, align 2, !tbaa !24
  %32 = load ptr, ptr %8, align 8, !tbaa !8
  %33 = getelementptr inbounds nuw %struct.UConverterDataISCII, ptr %32, i32 0, i32 9
  store i8 0, ptr %33, align 1, !tbaa !25
  %34 = load ptr, ptr %5, align 8, !tbaa !8
  %35 = getelementptr inbounds nuw %struct.UConverterLoadArgs, ptr %34, i32 0, i32 5
  %36 = load i32, ptr %35, align 4, !tbaa !26
  %37 = and i32 %36, 15
  %38 = icmp ult i32 %37, 9
  br i1 %38, label %39, label %100

39:                                               ; preds = %22
  %40 = load ptr, ptr %5, align 8, !tbaa !8
  %41 = getelementptr inbounds nuw %struct.UConverterLoadArgs, ptr %40, i32 0, i32 5
  %42 = load i32, ptr %41, align 4, !tbaa !26
  %43 = and i32 %42, 15
  %44 = zext i32 %43 to i64
  %45 = getelementptr inbounds nuw [9 x %struct.LookupDataStruct], ptr @_ZL17lookupInitialData, i64 0, i64 %44
  %46 = getelementptr inbounds nuw %struct.LookupDataStruct, ptr %45, i32 0, i32 0
  %47 = load i32, ptr %46, align 4, !tbaa !27
  %48 = mul nsw i32 %47, 128
  %49 = trunc i32 %48 to i16
  %50 = load ptr, ptr %8, align 8, !tbaa !8
  %51 = getelementptr inbounds nuw %struct.UConverterDataISCII, ptr %50, i32 0, i32 2
  store i16 %49, ptr %51, align 4, !tbaa !31
  %52 = load ptr, ptr %8, align 8, !tbaa !8
  %53 = getelementptr inbounds nuw %struct.UConverterDataISCII, ptr %52, i32 0, i32 4
  store i16 %49, ptr %53, align 4, !tbaa !32
  %54 = load ptr, ptr %8, align 8, !tbaa !8
  %55 = getelementptr inbounds nuw %struct.UConverterDataISCII, ptr %54, i32 0, i32 3
  store i16 %49, ptr %55, align 2, !tbaa !33
  %56 = load ptr, ptr %5, align 8, !tbaa !8
  %57 = getelementptr inbounds nuw %struct.UConverterLoadArgs, ptr %56, i32 0, i32 5
  %58 = load i32, ptr %57, align 4, !tbaa !26
  %59 = and i32 %58, 15
  %60 = zext i32 %59 to i64
  %61 = getelementptr inbounds nuw [9 x %struct.LookupDataStruct], ptr @_ZL17lookupInitialData, i64 0, i64 %60
  %62 = getelementptr inbounds nuw %struct.LookupDataStruct, ptr %61, i32 0, i32 1
  %63 = load i32, ptr %62, align 4, !tbaa !34
  %64 = load ptr, ptr %8, align 8, !tbaa !8
  %65 = getelementptr inbounds nuw %struct.UConverterDataISCII, ptr %64, i32 0, i32 7
  store i32 %63, ptr %65, align 4, !tbaa !35
  %66 = load ptr, ptr %8, align 8, !tbaa !8
  %67 = getelementptr inbounds nuw %struct.UConverterDataISCII, ptr %66, i32 0, i32 6
  store i32 %63, ptr %67, align 4, !tbaa !36
  %68 = load ptr, ptr %8, align 8, !tbaa !8
  %69 = getelementptr inbounds nuw %struct.UConverterDataISCII, ptr %68, i32 0, i32 5
  store i32 %63, ptr %69, align 4, !tbaa !37
  %70 = load ptr, ptr %8, align 8, !tbaa !8
  %71 = getelementptr inbounds nuw %struct.UConverterDataISCII, ptr %70, i32 0, i32 8
  store i8 1, ptr %71, align 4, !tbaa !38
  %72 = load ptr, ptr %8, align 8, !tbaa !8
  %73 = getelementptr inbounds nuw %struct.UConverterDataISCII, ptr %72, i32 0, i32 10
  %74 = getelementptr inbounds [16 x i8], ptr %73, i64 0, i64 0
  %75 = call ptr @strcpy(ptr noundef %74, ptr noundef @.str) #10
  %76 = load ptr, ptr %8, align 8, !tbaa !8
  %77 = getelementptr inbounds nuw %struct.UConverterDataISCII, ptr %76, i32 0, i32 10
  %78 = getelementptr inbounds [16 x i8], ptr %77, i64 0, i64 0
  %79 = call i64 @strlen(ptr noundef %78) #11
  %80 = trunc i64 %79 to i32
  store i32 %80, ptr %7, align 4, !tbaa !18
  %81 = load ptr, ptr %5, align 8, !tbaa !8
  %82 = getelementptr inbounds nuw %struct.UConverterLoadArgs, ptr %81, i32 0, i32 5
  %83 = load i32, ptr %82, align 4, !tbaa !26
  %84 = and i32 %83, 15
  %85 = add i32 %84, 48
  %86 = trunc i32 %85 to i8
  %87 = load ptr, ptr %8, align 8, !tbaa !8
  %88 = getelementptr inbounds nuw %struct.UConverterDataISCII, ptr %87, i32 0, i32 10
  %89 = load i32, ptr %7, align 4, !tbaa !18
  %90 = sext i32 %89 to i64
  %91 = getelementptr inbounds [16 x i8], ptr %88, i64 0, i64 %90
  store i8 %86, ptr %91, align 1, !tbaa !39
  %92 = load ptr, ptr %8, align 8, !tbaa !8
  %93 = getelementptr inbounds nuw %struct.UConverterDataISCII, ptr %92, i32 0, i32 10
  %94 = load i32, ptr %7, align 4, !tbaa !18
  %95 = add nsw i32 %94, 1
  %96 = sext i32 %95 to i64
  %97 = getelementptr inbounds [16 x i8], ptr %93, i64 0, i64 %96
  store i8 0, ptr %97, align 1, !tbaa !39
  %98 = load ptr, ptr %8, align 8, !tbaa !8
  %99 = getelementptr inbounds nuw %struct.UConverterDataISCII, ptr %98, i32 0, i32 11
  store i32 0, ptr %99, align 4, !tbaa !40
  br label %107

100:                                              ; preds = %22
  %101 = load ptr, ptr %4, align 8, !tbaa !3
  %102 = getelementptr inbounds nuw %struct.UConverter, ptr %101, i32 0, i32 2
  %103 = load ptr, ptr %102, align 8, !tbaa !14
  call void @uprv_free_77(ptr noundef %103)
  %104 = load ptr, ptr %4, align 8, !tbaa !3
  %105 = getelementptr inbounds nuw %struct.UConverter, ptr %104, i32 0, i32 2
  store ptr null, ptr %105, align 8, !tbaa !14
  %106 = load ptr, ptr %6, align 8, !tbaa !8
  store i32 1, ptr %106, align 4, !tbaa !41
  br label %107

107:                                              ; preds = %100, %39
  call void @llvm.lifetime.end.p0(i64 8, ptr %8) #10
  call void @llvm.lifetime.end.p0(i64 4, ptr %7) #10
  br label %110

108:                                              ; preds = %14
  %109 = load ptr, ptr %6, align 8, !tbaa !8
  store i32 7, ptr %109, align 4, !tbaa !41
  br label %110

110:                                              ; preds = %13, %108, %107
  ret void
}