; Function Attrs: mustprogress uwtable
define internal void @_ZL10_ISCIIOpenP10UConverterP18UConverterLoadArgsP10UErrorCode(ptr noundef writeonly captures(none) %0, ptr noundef readonly captures(none) %1, ptr noundef writeonly captures(none) %2) #0 {
  %4 = getelementptr inbounds nuw i8, ptr %1, i64 8
  %5 = load i8, ptr %4, align 8, !tbaa !3
  %.not = icmp eq i8 %5, 0
  br i1 %.not, label %6, label %43

6:                                                ; preds = %3
  %7 = tail call noalias dereferenceable_or_null(48) ptr @uprv_malloc_77(i64 noundef 48) #8
  %8 = getelementptr inbounds nuw i8, ptr %0, i64 16
  store ptr %7, ptr %8, align 8, !tbaa !11
  %.not30 = icmp eq ptr %7, null
  br i1 %.not30, label %42, label %9

9:                                                ; preds = %6
  store i16 -2, ptr %7, align 4, !tbaa !15
  %10 = getelementptr inbounds nuw i8, ptr %0, i64 72
  store i32 65535, ptr %10, align 8, !tbaa !19
  %11 = getelementptr inbounds nuw i8, ptr %7, i64 2
  store i16 0, ptr %11, align 2, !tbaa !20
  %12 = getelementptr inbounds nuw i8, ptr %7, i64 25
  store i8 0, ptr %12, align 1, !tbaa !21
  %13 = getelementptr inbounds nuw i8, ptr %1, i64 12
  %14 = load i32, ptr %13, align 4, !tbaa !22
  %15 = and i32 %14, 15
  %16 = icmp samesign ult i32 %15, 9
  br i1 %16, label %17, label %41

17:                                               ; preds = %9
  %18 = zext nneg i32 %15 to i64
  %19 = getelementptr inbounds nuw [9 x %struct.LookupDataStruct], ptr @_ZL17lookupInitialData, i64 0, i64 %18
  %20 = load i32, ptr %19, align 4, !tbaa !23
  %.tr = trunc i32 %20 to i16
  %21 = shl i16 %.tr, 7
  %22 = getelementptr inbounds nuw i8, ptr %7, i64 4
  store i16 %21, ptr %22, align 4, !tbaa !27
  %23 = getelementptr inbounds nuw i8, ptr %7, i64 8
  store i16 %21, ptr %23, align 4, !tbaa !28
  %24 = getelementptr inbounds nuw i8, ptr %7, i64 6
  store i16 %21, ptr %24, align 2, !tbaa !29
  %25 = getelementptr inbounds nuw [9 x %struct.LookupDataStruct], ptr @_ZL17lookupInitialData, i64 0, i64 %18, i32 1
  %26 = load i32, ptr %25, align 4, !tbaa !30
  %27 = getelementptr inbounds nuw i8, ptr %7, i64 20
  store i32 %26, ptr %27, align 4, !tbaa !31
  %28 = getelementptr inbounds nuw i8, ptr %7, i64 16
  store i32 %26, ptr %28, align 4, !tbaa !32
  %29 = getelementptr inbounds nuw i8, ptr %7, i64 12
  store i32 %26, ptr %29, align 4, !tbaa !33
  %30 = getelementptr inbounds nuw i8, ptr %7, i64 24
  store i8 1, ptr %30, align 4, !tbaa !34
  %31 = getelementptr inbounds nuw i8, ptr %7, i64 26
  tail call void @llvm.memcpy.p0.p0.i64(ptr noundef nonnull align 1 dereferenceable(15) %31, ptr noundef nonnull align 1 dereferenceable(15) @.str, i64 15, i1 false) #9
  %32 = tail call i64 @strlen(ptr noundef nonnull dereferenceable(1) %31) #10
  %33 = trunc i32 %14 to i8
  %34 = and i8 %33, 15
  %35 = or disjoint i8 %34, 48
  %sext = shl i64 %32, 32
  %36 = ashr exact i64 %sext, 32
  %37 = getelementptr inbounds [16 x i8], ptr %31, i64 0, i64 %36
  store i8 %35, ptr %37, align 1, !tbaa !35
  %sext31 = add i64 %sext, 4294967296
  %38 = ashr exact i64 %sext31, 32
  %39 = getelementptr inbounds [16 x i8], ptr %31, i64 0, i64 %38
  store i8 0, ptr %39, align 1, !tbaa !35
  %40 = getelementptr inbounds nuw i8, ptr %7, i64 44
  store i32 0, ptr %40, align 4, !tbaa !36
  br label %43

41:                                               ; preds = %9
  tail call void @uprv_free_77(ptr noundef nonnull %7)
  store ptr null, ptr %8, align 8, !tbaa !11
  store i32 1, ptr %2, align 4, !tbaa !37
  br label %43

42:                                               ; preds = %6
  store i32 7, ptr %2, align 4, !tbaa !37
  br label %43

43:                                               ; preds = %17, %41, %3, %42
  ret void
}